; Function Attrs: mustprogress uwtable
define hidden noundef zeroext i1 @_ZNK19OpenColorIO_v2_5dev22ExposureContrastOpData6equalsERKNS_6OpDataE(ptr noundef nonnull align 8 dereferenceable(248) %0, ptr noundef nonnull align 8 dereferenceable(168) %1) unnamed_addr #0 align 2 {
  %3 = tail call noundef zeroext i1 @_ZNK19OpenColorIO_v2_5dev6OpData6equalsERKS0_(ptr noundef nonnull align 8 dereferenceable(168) %0, ptr noundef nonnull align 8 dereferenceable(168) %1)
  br i1 %3, label %4, label %46

4:                                                ; preds = %2
  %5 = getelementptr inbounds nuw i8, ptr %0, i64 168
  %6 = load i32, ptr %5, align 8, !tbaa !15
  %7 = getelementptr inbounds nuw i8, ptr %1, i64 168
  %8 = load i32, ptr %7, align 8, !tbaa !15
  %9 = icmp eq i32 %6, %8
  br i1 %9, label %10, label %46

10:                                               ; preds = %4
  %11 = getelementptr inbounds nuw i8, ptr %0, i64 224
  %12 = load double, ptr %11, align 8, !tbaa !55
  %13 = getelementptr inbounds nuw i8, ptr %1, i64 224
  %14 = load double, ptr %13, align 8, !tbaa !55
  %15 = fcmp oeq double %12, %14
  br i1 %15, label %16, label %46

16:                                               ; preds = %10
  %17 = getelementptr inbounds nuw i8, ptr %0, i64 232
  %18 = load double, ptr %17, align 8, !tbaa !56
  %19 = getelementptr inbounds nuw i8, ptr %1, i64 232
  %20 = load double, ptr %19, align 8, !tbaa !56
  %21 = fcmp oeq double %18, %20
  br i1 %21, label %22, label %46

22:                                               ; preds = %16
  %23 = getelementptr inbounds nuw i8, ptr %0, i64 240
  %24 = load double, ptr %23, align 8, !tbaa !57
  %25 = getelementptr inbounds nuw i8, ptr %1, i64 240
  %26 = load double, ptr %25, align 8, !tbaa !57
  %27 = fcmp oeq double %24, %26
  br i1 %27, label %28, label %46

28:                                               ; preds = %22
  %29 = getelementptr inbounds nuw i8, ptr %0, i64 176
  %30 = load ptr, ptr %29, align 8, !tbaa !42
  %31 = getelementptr inbounds nuw i8, ptr %1, i64 176
  %32 = load ptr, ptr %31, align 8, !tbaa !42
  %33 = tail call noundef zeroext i1 @_ZNK19OpenColorIO_v2_5dev19DynamicPropertyImpl6equalsERKS0_(ptr noundef nonnull align 8 dereferenceable(13) %30, ptr noundef nonnull align 8 dereferenceable(13) %32)
  br i1 %33, label %34, label %46

34:                                               ; preds = %28
  %35 = getelementptr inbounds nuw i8, ptr %0, i64 192
  %36 = load ptr, ptr %35, align 8, !tbaa !42
  %37 = getelementptr inbounds nuw i8, ptr %1, i64 192
  %38 = load ptr, ptr %37, align 8, !tbaa !42
  %39 = tail call noundef zeroext i1 @_ZNK19OpenColorIO_v2_5dev19DynamicPropertyImpl6equalsERKS0_(ptr noundef nonnull align 8 dereferenceable(13) %36, ptr noundef nonnull align 8 dereferenceable(13) %38)
  br i1 %39, label %40, label %46

40:                                               ; preds = %34
  %41 = getelementptr inbounds nuw i8, ptr %0, i64 208
  %42 = load ptr, ptr %41, align 8, !tbaa !42
  %43 = getelementptr inbounds nuw i8, ptr %1, i64 208
  %44 = load ptr, ptr %43, align 8, !tbaa !42
  %45 = tail call noundef zeroext i1 @_ZNK19OpenColorIO_v2_5dev19DynamicPropertyImpl6equalsERKS0_(ptr noundef nonnull align 8 dereferenceable(13) %42, ptr noundef nonnull align 8 dereferenceable(13) %44)
  br label %46

46:                                               ; preds = %4, %10, %16, %22, %28, %34, %40, %2
  %.0 = phi i1 [ false, %2 ], [ false, %34 ], [ false, %28 ], [ false, %22 ], [ false, %16 ], [ false, %10 ], [ false, %4 ], [ %45, %40 ]
  ret i1 %.0
}